
basic_concurrency_leds.elf:     file format elf32-littlearm

Sections:
Idx Name          Size      VMA       LMA       File off  Algn
  0 .isr_vector   000000bc  08000000  08000000  00001000  2**0
                  CONTENTS, ALLOC, LOAD, READONLY, DATA
  1 .text         000004bc  080000bc  080000bc  000010bc  2**2
                  CONTENTS, ALLOC, LOAD, READONLY, CODE
  2 .rodata       00000000  08000578  08000578  00002008  2**0
                  CONTENTS, ALLOC, LOAD, DATA
  3 .ARM.extab    00000000  08000578  08000578  00002008  2**0
                  CONTENTS, READONLY
  4 .ARM          00000000  08000578  08000578  00002008  2**0
                  CONTENTS, READONLY
  5 .preinit_array 00000000  08000578  08000578  00002008  2**0
                  CONTENTS, ALLOC, LOAD, DATA
  6 .init_array   00000004  08000578  08000578  00001578  2**2
                  CONTENTS, ALLOC, LOAD, READONLY, DATA
  7 .fini_array   00000004  0800057c  0800057c  0000157c  2**2
                  CONTENTS, ALLOC, LOAD, READONLY, DATA
  8 .data         00000008  20000000  08000580  00002000  2**2
                  CONTENTS, ALLOC, LOAD, DATA
  9 .bss          00000020  20000008  08000588  00002008  2**2
                  ALLOC
 10 ._user_heap_stack 00000600  20000028  08000588  00002028  2**0
                  ALLOC
 11 .ARM.attributes 00000028  00000000  00000000  00002008  2**0
                  CONTENTS, READONLY
 12 .debug_info   00000e94  00000000  00000000  00002030  2**0
                  CONTENTS, READONLY, DEBUGGING, OCTETS
 13 .debug_abbrev 000004d2  00000000  00000000  00002ec4  2**0
                  CONTENTS, READONLY, DEBUGGING, OCTETS
 14 .debug_aranges 00000108  00000000  00000000  00003398  2**3
                  CONTENTS, READONLY, DEBUGGING, OCTETS
 15 .debug_rnglists 000000ad  00000000  00000000  000034a0  2**0
                  CONTENTS, READONLY, DEBUGGING, OCTETS
 16 .debug_macro  0000ed96  00000000  00000000  0000354d  2**0
                  CONTENTS, READONLY, DEBUGGING, OCTETS
 17 .debug_line   0000172b  00000000  00000000  000122e3  2**0
                  CONTENTS, READONLY, DEBUGGING, OCTETS
 18 .debug_str    0005355b  00000000  00000000  00013a0e  2**0
                  CONTENTS, READONLY, DEBUGGING, OCTETS
 19 .comment      00000043  00000000  00000000  00066f69  2**0
                  CONTENTS, READONLY
 20 .debug_frame  00000248  00000000  00000000  00066fac  2**2
                  CONTENTS, READONLY, DEBUGGING, OCTETS
 21 .debug_line_str 00000064  00000000  00000000  000671f4  2**0
                  CONTENTS, READONLY, DEBUGGING, OCTETS

Disassembly of section .text:

080000bc <__do_global_dtors_aux>:
 80000bc:	b510      	push	{r4, lr}
 80000be:	4c06      	ldr	r4, [pc, #24]	@ (80000d8 <__do_global_dtors_aux+0x1c>)
 80000c0:	7823      	ldrb	r3, [r4, #0]
 80000c2:	2b00      	cmp	r3, #0
 80000c4:	d107      	bne.n	80000d6 <__do_global_dtors_aux+0x1a>
 80000c6:	4b05      	ldr	r3, [pc, #20]	@ (80000dc <__do_global_dtors_aux+0x20>)
 80000c8:	2b00      	cmp	r3, #0
 80000ca:	d002      	beq.n	80000d2 <__do_global_dtors_aux+0x16>
 80000cc:	4804      	ldr	r0, [pc, #16]	@ (80000e0 <__do_global_dtors_aux+0x24>)
 80000ce:	e000      	b.n	80000d2 <__do_global_dtors_aux+0x16>
 80000d0:	bf00      	nop
 80000d2:	2301      	movs	r3, #1
 80000d4:	7023      	strb	r3, [r4, #0]
 80000d6:	bd10      	pop	{r4, pc}
 80000d8:	20000008 	.word	0x20000008
 80000dc:	00000000 	.word	0x00000000
 80000e0:	08000560 	.word	0x08000560

080000e4 <frame_dummy>:
 80000e4:	4b04      	ldr	r3, [pc, #16]	@ (80000f8 <frame_dummy+0x14>)
 80000e6:	b510      	push	{r4, lr}
 80000e8:	2b00      	cmp	r3, #0
 80000ea:	d003      	beq.n	80000f4 <frame_dummy+0x10>
 80000ec:	4903      	ldr	r1, [pc, #12]	@ (80000fc <frame_dummy+0x18>)
 80000ee:	4804      	ldr	r0, [pc, #16]	@ (8000100 <frame_dummy+0x1c>)
 80000f0:	e000      	b.n	80000f4 <frame_dummy+0x10>
 80000f2:	bf00      	nop
 80000f4:	bd10      	pop	{r4, pc}
 80000f6:	46c0      	nop			@ (mov r8, r8)
 80000f8:	00000000 	.word	0x00000000
 80000fc:	2000000c 	.word	0x2000000c
 8000100:	08000560 	.word	0x08000560

08000104 <delay>:
#include "delay.h"

void delay(unsigned int time_del) {
 8000104:	b580      	push	{r7, lr}
 8000106:	b084      	sub	sp, #16
 8000108:	af00      	add	r7, sp, #0
 800010a:	6078      	str	r0, [r7, #4]
    volatile int n;
    while(time_del--) {
 800010c:	e008      	b.n	8000120 <delay+0x1c>
        n = 1000;
 800010e:	23fa      	movs	r3, #250	@ 0xfa
 8000110:	009b      	lsls	r3, r3, #2
 8000112:	60fb      	str	r3, [r7, #12]
        while(n--);
 8000114:	46c0      	nop			@ (mov r8, r8)
 8000116:	68fb      	ldr	r3, [r7, #12]
 8000118:	1e5a      	subs	r2, r3, #1
 800011a:	60fa      	str	r2, [r7, #12]
 800011c:	2b00      	cmp	r3, #0
 800011e:	d1fa      	bne.n	8000116 <delay+0x12>
    while(time_del--) {
 8000120:	687b      	ldr	r3, [r7, #4]
 8000122:	1e5a      	subs	r2, r3, #1
 8000124:	607a      	str	r2, [r7, #4]
 8000126:	2b00      	cmp	r3, #0
 8000128:	d1f1      	bne.n	800010e <delay+0xa>
    }
}
 800012a:	46c0      	nop			@ (mov r8, r8)
 800012c:	46c0      	nop			@ (mov r8, r8)
 800012e:	46bd      	mov	sp, r7
 8000130:	b004      	add	sp, #16
 8000132:	bd80      	pop	{r7, pc}

08000134 <init_pin>:
#include "gpio.h"

void init_pin(GPIO_TypeDef *port, uint8_t pin, gpio_mode_t mode) {
 8000134:	b580      	push	{r7, lr}
 8000136:	b082      	sub	sp, #8
 8000138:	af00      	add	r7, sp, #0
 800013a:	6078      	str	r0, [r7, #4]
 800013c:	0008      	movs	r0, r1
 800013e:	0011      	movs	r1, r2
 8000140:	1cfb      	adds	r3, r7, #3
 8000142:	1c02      	adds	r2, r0, #0
 8000144:	701a      	strb	r2, [r3, #0]
 8000146:	1cbb      	adds	r3, r7, #2
 8000148:	1c0a      	adds	r2, r1, #0
 800014a:	701a      	strb	r2, [r3, #0]
	port->MODER = (port->MODER & ~(0x3UL << (pin * 2))) | ((uint32_t)mode  << (pin * 2));
 800014c:	687b      	ldr	r3, [r7, #4]
 800014e:	681b      	ldr	r3, [r3, #0]
 8000150:	1cfa      	adds	r2, r7, #3
 8000152:	7812      	ldrb	r2, [r2, #0]
 8000154:	0052      	lsls	r2, r2, #1
 8000156:	2103      	movs	r1, #3
 8000158:	4091      	lsls	r1, r2
 800015a:	000a      	movs	r2, r1
 800015c:	43d2      	mvns	r2, r2
 800015e:	401a      	ands	r2, r3
 8000160:	1cbb      	adds	r3, r7, #2
 8000162:	7819      	ldrb	r1, [r3, #0]
 8000164:	1cfb      	adds	r3, r7, #3
 8000166:	781b      	ldrb	r3, [r3, #0]
 8000168:	005b      	lsls	r3, r3, #1
 800016a:	4099      	lsls	r1, r3
 800016c:	000b      	movs	r3, r1
 800016e:	431a      	orrs	r2, r3
 8000170:	687b      	ldr	r3, [r7, #4]
 8000172:	601a      	str	r2, [r3, #0]
}
 8000174:	46c0      	nop			@ (mov r8, r8)
 8000176:	46bd      	mov	sp, r7
 8000178:	b002      	add	sp, #8
 800017a:	bd80      	pop	{r7, pc}

0800017c <pin_high>:

void pin_high(GPIO_TypeDef *port, uint8_t pin) {
 800017c:	b580      	push	{r7, lr}
 800017e:	b082      	sub	sp, #8
 8000180:	af00      	add	r7, sp, #0
 8000182:	6078      	str	r0, [r7, #4]
 8000184:	000a      	movs	r2, r1
 8000186:	1cfb      	adds	r3, r7, #3
 8000188:	701a      	strb	r2, [r3, #0]
	port->BSRR = (1UL << pin);
 800018a:	1cfb      	adds	r3, r7, #3
 800018c:	781b      	ldrb	r3, [r3, #0]
 800018e:	2201      	movs	r2, #1
 8000190:	409a      	lsls	r2, r3
 8000192:	687b      	ldr	r3, [r7, #4]
 8000194:	619a      	str	r2, [r3, #24]
}
 8000196:	46c0      	nop			@ (mov r8, r8)
 8000198:	46bd      	mov	sp, r7
 800019a:	b002      	add	sp, #8
 800019c:	bd80      	pop	{r7, pc}

0800019e <pin_low>:

void pin_low(GPIO_TypeDef *port, uint8_t pin) {
 800019e:	b580      	push	{r7, lr}
 80001a0:	b082      	sub	sp, #8
 80001a2:	af00      	add	r7, sp, #0
 80001a4:	6078      	str	r0, [r7, #4]
 80001a6:	000a      	movs	r2, r1
 80001a8:	1cfb      	adds	r3, r7, #3
 80001aa:	701a      	strb	r2, [r3, #0]
	port->BSRR = (1UL << (pin + 16));
 80001ac:	1cfb      	adds	r3, r7, #3
 80001ae:	781b      	ldrb	r3, [r3, #0]
 80001b0:	3310      	adds	r3, #16
 80001b2:	2201      	movs	r2, #1
 80001b4:	409a      	lsls	r2, r3
 80001b6:	687b      	ldr	r3, [r7, #4]
 80001b8:	619a      	str	r2, [r3, #24]
}
 80001ba:	46c0      	nop			@ (mov r8, r8)
 80001bc:	46bd      	mov	sp, r7
 80001be:	b002      	add	sp, #8
 80001c0:	bd80      	pop	{r7, pc}
	...

080001c4 <__NVIC_EnableIRQ>:
  \details Enables a device specific interrupt in the NVIC interrupt controller.
  \param [in]      IRQn  Device specific interrupt number.
  \note    IRQn must not be negative.
 */
__STATIC_INLINE void __NVIC_EnableIRQ(IRQn_Type IRQn)
{
 80001c4:	b580      	push	{r7, lr}
 80001c6:	b082      	sub	sp, #8
 80001c8:	af00      	add	r7, sp, #0
 80001ca:	0002      	movs	r2, r0
 80001cc:	1dfb      	adds	r3, r7, #7
 80001ce:	701a      	strb	r2, [r3, #0]
  if ((int32_t)(IRQn) >= 0)
 80001d0:	1dfb      	adds	r3, r7, #7
 80001d2:	781b      	ldrb	r3, [r3, #0]
 80001d4:	2b7f      	cmp	r3, #127	@ 0x7f
 80001d6:	d809      	bhi.n	80001ec <__NVIC_EnableIRQ+0x28>
  {
    __COMPILER_BARRIER();
    NVIC->ISER[0U] = (uint32_t)(1UL << (((uint32_t)IRQn) & 0x1FUL));
 80001d8:	1dfb      	adds	r3, r7, #7
 80001da:	781b      	ldrb	r3, [r3, #0]
 80001dc:	001a      	movs	r2, r3
 80001de:	231f      	movs	r3, #31
 80001e0:	401a      	ands	r2, r3
 80001e2:	4b04      	ldr	r3, [pc, #16]	@ (80001f4 <__NVIC_EnableIRQ+0x30>)
 80001e4:	2101      	movs	r1, #1
 80001e6:	4091      	lsls	r1, r2
 80001e8:	000a      	movs	r2, r1
 80001ea:	601a      	str	r2, [r3, #0]
    __COMPILER_BARRIER();
  }
}
 80001ec:	46c0      	nop			@ (mov r8, r8)
 80001ee:	46bd      	mov	sp, r7
 80001f0:	b002      	add	sp, #8
 80001f2:	bd80      	pop	{r7, pc}
 80001f4:	e000e100 	.word	0xe000e100

080001f8 <button_one_exti_init>:
#include "stm32g071xx.h"

/* Enable interrupts for button one.
*  Currently connected to GPIOA Pin 9 (PA9)
*/
void button_one_exti_init(void) {
 80001f8:	b580      	push	{r7, lr}
 80001fa:	af00      	add	r7, sp, #0
  \details Disables IRQ interrupts by setting the I-bit in the CPSR.
           Can only be executed in Privileged modes.
 */
__STATIC_FORCEINLINE void __disable_irq(void)
{
  __ASM volatile ("cpsid i" : : : "memory");
 80001fc:	b672      	cpsid	i
}
 80001fe:	46c0      	nop			@ (mov r8, r8)

    // Assuming GPIO has already been configured
    // Assuming Pin has already been configured

    // Enable SYSCFG clock
    RCC->APBENR2 |= RCC_APBENR2_SYSCFGEN;
 8000200:	4b14      	ldr	r3, [pc, #80]	@ (8000254 <button_one_exti_init+0x5c>)
 8000202:	6c1a      	ldr	r2, [r3, #64]	@ 0x40
 8000204:	4b13      	ldr	r3, [pc, #76]	@ (8000254 <button_one_exti_init+0x5c>)
 8000206:	2101      	movs	r1, #1
 8000208:	430a      	orrs	r2, r1
 800020a:	641a      	str	r2, [r3, #64]	@ 0x40

    // Select PORTA for EXTI9    
    EXTI->EXTICR[2] &= ~EXTI_EXTICR3_EXTI9;   // 0x00 = PA
 800020c:	4b12      	ldr	r3, [pc, #72]	@ (8000258 <button_one_exti_init+0x60>)
 800020e:	6e9a      	ldr	r2, [r3, #104]	@ 0x68
 8000210:	4b11      	ldr	r3, [pc, #68]	@ (8000258 <button_one_exti_init+0x60>)
 8000212:	4912      	ldr	r1, [pc, #72]	@ (800025c <button_one_exti_init+0x64>)
 8000214:	400a      	ands	r2, r1
 8000216:	669a      	str	r2, [r3, #104]	@ 0x68

    // Unmask EXTI9
    EXTI->IMR1  |=  EXTI_IMR1_IM9;       // unmask line 9
 8000218:	4a0f      	ldr	r2, [pc, #60]	@ (8000258 <button_one_exti_init+0x60>)
 800021a:	2380      	movs	r3, #128	@ 0x80
 800021c:	58d3      	ldr	r3, [r2, r3]
 800021e:	490e      	ldr	r1, [pc, #56]	@ (8000258 <button_one_exti_init+0x60>)
 8000220:	2280      	movs	r2, #128	@ 0x80
 8000222:	0092      	lsls	r2, r2, #2
 8000224:	4313      	orrs	r3, r2
 8000226:	2280      	movs	r2, #128	@ 0x80
 8000228:	508b      	str	r3, [r1, r2]
    
    // Select falling edge trigger
    EXTI->FTSR1 |=  EXTI_FTSR1_FT9;      // falling edge trigger
 800022a:	4b0b      	ldr	r3, [pc, #44]	@ (8000258 <button_one_exti_init+0x60>)
 800022c:	685a      	ldr	r2, [r3, #4]
 800022e:	4b0a      	ldr	r3, [pc, #40]	@ (8000258 <button_one_exti_init+0x60>)
 8000230:	2180      	movs	r1, #128	@ 0x80
 8000232:	0089      	lsls	r1, r1, #2
 8000234:	430a      	orrs	r2, r1
 8000236:	605a      	str	r2, [r3, #4]
    EXTI->RTSR1 &= ~EXTI_RTSR1_RT9;      // disable rising edge
 8000238:	4b07      	ldr	r3, [pc, #28]	@ (8000258 <button_one_exti_init+0x60>)
 800023a:	681a      	ldr	r2, [r3, #0]
 800023c:	4b06      	ldr	r3, [pc, #24]	@ (8000258 <button_one_exti_init+0x60>)
 800023e:	4908      	ldr	r1, [pc, #32]	@ (8000260 <button_one_exti_init+0x68>)
 8000240:	400a      	ands	r2, r1
 8000242:	601a      	str	r2, [r3, #0]

    // Enable EXTI9 line in NVIC
    NVIC_EnableIRQ(EXTI4_15_IRQn);
 8000244:	2007      	movs	r0, #7
 8000246:	f7ff ffbd 	bl	80001c4 <__NVIC_EnableIRQ>
  __ASM volatile ("cpsie i" : : : "memory");
 800024a:	b662      	cpsie	i
}
 800024c:	46c0      	nop			@ (mov r8, r8)

    // Enable global interrupts
    __enable_irq();
}
 800024e:	46c0      	nop			@ (mov r8, r8)
 8000250:	46bd      	mov	sp, r7
 8000252:	bd80      	pop	{r7, pc}
 8000254:	40021000 	.word	0x40021000
 8000258:	40021800 	.word	0x40021800
 800025c:	fffff8ff 	.word	0xfffff8ff
 8000260:	fffffdff 	.word	0xfffffdff

08000264 <button_two_exti_init>:

/* Enable interrupts for button two.
*  Currently connected to GPIOA Pin 7 (PA7)
*/
void button_two_exti_init(void) {
 8000264:	b580      	push	{r7, lr}
 8000266:	af00      	add	r7, sp, #0
  __ASM volatile ("cpsid i" : : : "memory");
 8000268:	b672      	cpsid	i
}
 800026a:	46c0      	nop			@ (mov r8, r8)

    // Assuming GPIO has already been configured
    // Assuming Pin has already been configured

    // Enable SYSCFG clock
    RCC->APBENR2 |= RCC_APBENR2_SYSCFGEN;
 800026c:	4b13      	ldr	r3, [pc, #76]	@ (80002bc <button_two_exti_init+0x58>)
 800026e:	6c1a      	ldr	r2, [r3, #64]	@ 0x40
 8000270:	4b12      	ldr	r3, [pc, #72]	@ (80002bc <button_two_exti_init+0x58>)
 8000272:	2101      	movs	r1, #1
 8000274:	430a      	orrs	r2, r1
 8000276:	641a      	str	r2, [r3, #64]	@ 0x40

    // Select PORTA for EXTI9    
    EXTI->EXTICR[2] &= ~EXTI_EXTICR3_EXTI9;   // 0x00 = PA
 8000278:	4b11      	ldr	r3, [pc, #68]	@ (80002c0 <button_two_exti_init+0x5c>)
 800027a:	6e9a      	ldr	r2, [r3, #104]	@ 0x68
 800027c:	4b10      	ldr	r3, [pc, #64]	@ (80002c0 <button_two_exti_init+0x5c>)
 800027e:	4911      	ldr	r1, [pc, #68]	@ (80002c4 <button_two_exti_init+0x60>)
 8000280:	400a      	ands	r2, r1
 8000282:	669a      	str	r2, [r3, #104]	@ 0x68

    // Unmask EXTI9
    EXTI->IMR1  |=  EXTI_IMR1_IM7;       // unmask line 7
 8000284:	4a0e      	ldr	r2, [pc, #56]	@ (80002c0 <button_two_exti_init+0x5c>)
 8000286:	2380      	movs	r3, #128	@ 0x80
 8000288:	58d3      	ldr	r3, [r2, r3]
 800028a:	490d      	ldr	r1, [pc, #52]	@ (80002c0 <button_two_exti_init+0x5c>)
 800028c:	2280      	movs	r2, #128	@ 0x80
 800028e:	4313      	orrs	r3, r2
 8000290:	2280      	movs	r2, #128	@ 0x80
 8000292:	508b      	str	r3, [r1, r2]
    
    // Select falling edge trigger
    EXTI->FTSR1 |=  EXTI_FTSR1_FT7;      // falling edge trigger
 8000294:	4b0a      	ldr	r3, [pc, #40]	@ (80002c0 <button_two_exti_init+0x5c>)
 8000296:	685a      	ldr	r2, [r3, #4]
 8000298:	4b09      	ldr	r3, [pc, #36]	@ (80002c0 <button_two_exti_init+0x5c>)
 800029a:	2180      	movs	r1, #128	@ 0x80
 800029c:	430a      	orrs	r2, r1
 800029e:	605a      	str	r2, [r3, #4]
    EXTI->RTSR1 &= ~EXTI_RTSR1_RT7;      // disable rising edge
 80002a0:	4b07      	ldr	r3, [pc, #28]	@ (80002c0 <button_two_exti_init+0x5c>)
 80002a2:	681a      	ldr	r2, [r3, #0]
 80002a4:	4b06      	ldr	r3, [pc, #24]	@ (80002c0 <button_two_exti_init+0x5c>)
 80002a6:	2180      	movs	r1, #128	@ 0x80
 80002a8:	438a      	bics	r2, r1
 80002aa:	601a      	str	r2, [r3, #0]

    // Enable EXTI7 line in NVIC
    NVIC_EnableIRQ(EXTI4_15_IRQn);
 80002ac:	2007      	movs	r0, #7
 80002ae:	f7ff ff89 	bl	80001c4 <__NVIC_EnableIRQ>
  __ASM volatile ("cpsie i" : : : "memory");
 80002b2:	b662      	cpsie	i
}
 80002b4:	46c0      	nop			@ (mov r8, r8)

    // Enable global interrupts
    __enable_irq();
 80002b6:	46c0      	nop			@ (mov r8, r8)
 80002b8:	46bd      	mov	sp, r7
 80002ba:	bd80      	pop	{r7, pc}
 80002bc:	40021000 	.word	0x40021000
 80002c0:	40021800 	.word	0x40021800
 80002c4:	fffff8ff 	.word	0xfffff8ff

080002c8 <main>:
void task_read_buttons(void);
void task_flash(void);
void task_rgb(void);

/* Main Program Entry */
int main(void) {
 80002c8:	b580      	push	{r7, lr}
 80002ca:	af00      	add	r7, sp, #0
	/* Init gpio ports */
	init_port_b();
 80002cc:	f000 f80c 	bl	80002e8 <init_port_b>
	init_port_a();
 80002d0:	f000 f826 	bl	8000320 <init_port_a>

	/* Init interrupts */
	button_one_exti_init(); 
 80002d4:	f7ff ff90 	bl	80001f8 <button_one_exti_init>
	button_two_exti_init();
 80002d8:	f7ff ffc4 	bl	8000264 <button_two_exti_init>
	
	/* Main Program Loop */
	while(1) {
		task_flash();
 80002dc:	f000 f87a 	bl	80003d4 <task_flash>
		task_rgb();
 80002e0:	f000 f89a 	bl	8000418 <task_rgb>
		task_flash();
 80002e4:	46c0      	nop			@ (mov r8, r8)
 80002e6:	e7f9      	b.n	80002dc <main+0x14>

080002e8 <init_port_b>:
	}
}

/* Function definitions */
void init_port_b(void) {
 80002e8:	b580      	push	{r7, lr}
 80002ea:	af00      	add	r7, sp, #0
	RCC->IOPENR |= RCC_IOPENR_GPIOBEN ;
 80002ec:	4b0a      	ldr	r3, [pc, #40]	@ (8000318 <init_port_b+0x30>)
 80002ee:	6b5a      	ldr	r2, [r3, #52]	@ 0x34
 80002f0:	4b09      	ldr	r3, [pc, #36]	@ (8000318 <init_port_b+0x30>)
 80002f2:	2102      	movs	r1, #2
 80002f4:	430a      	orrs	r2, r1
 80002f6:	635a      	str	r2, [r3, #52]	@ 0x34
	init_pin(GPIOB, RED_LED_PIN, GPIO_MODE_OUTPUT);  	// D5 
 80002f8:	4b08      	ldr	r3, [pc, #32]	@ (800031c <init_port_b+0x34>)
 80002fa:	2201      	movs	r2, #1
 80002fc:	2104      	movs	r1, #4
 80002fe:	0018      	movs	r0, r3
 8000300:	f7ff ff18 	bl	8000134 <init_pin>
	init_pin(GPIOB, GREEN_LED_PIN, GPIO_MODE_OUTPUT);	// D3 
 8000304:	4b05      	ldr	r3, [pc, #20]	@ (800031c <init_port_b+0x34>)
 8000306:	2201      	movs	r2, #1
 8000308:	2103      	movs	r1, #3
 800030a:	0018      	movs	r0, r3
 800030c:	f7ff ff12 	bl	8000134 <init_pin>
}
 8000310:	46c0      	nop			@ (mov r8, r8)
 8000312:	46bd      	mov	sp, r7
 8000314:	bd80      	pop	{r7, pc}
 8000316:	46c0      	nop			@ (mov r8, r8)
 8000318:	40021000 	.word	0x40021000
 800031c:	50000400 	.word	0x50000400

08000320 <init_port_a>:

void init_port_a(void) {
 8000320:	b580      	push	{r7, lr}
 8000322:	af00      	add	r7, sp, #0
	RCC->IOPENR |= RCC_IOPENR_GPIOAEN ;
 8000324:	4b0e      	ldr	r3, [pc, #56]	@ (8000360 <init_port_a+0x40>)
 8000326:	6b5a      	ldr	r2, [r3, #52]	@ 0x34
 8000328:	4b0d      	ldr	r3, [pc, #52]	@ (8000360 <init_port_a+0x40>)
 800032a:	2101      	movs	r1, #1
 800032c:	430a      	orrs	r2, r1
 800032e:	635a      	str	r2, [r3, #52]	@ 0x34
	init_pin(GPIOA, BLUE_LED_PIN, GPIO_MODE_OUTPUT);    // D2 
 8000330:	23a0      	movs	r3, #160	@ 0xa0
 8000332:	05db      	lsls	r3, r3, #23
 8000334:	2201      	movs	r2, #1
 8000336:	210a      	movs	r1, #10
 8000338:	0018      	movs	r0, r3
 800033a:	f7ff fefb 	bl	8000134 <init_pin>
	init_pin(GPIOA, BUTTON_ONE_PIN, GPIO_MODE_INPUT);   // D8
 800033e:	23a0      	movs	r3, #160	@ 0xa0
 8000340:	05db      	lsls	r3, r3, #23
 8000342:	2200      	movs	r2, #0
 8000344:	2109      	movs	r1, #9
 8000346:	0018      	movs	r0, r3
 8000348:	f7ff fef4 	bl	8000134 <init_pin>
	init_pin(GPIOA, BUTTON_TWO_PIN, GPIO_MODE_INPUT);   // D11
 800034c:	23a0      	movs	r3, #160	@ 0xa0
 800034e:	05db      	lsls	r3, r3, #23
 8000350:	2200      	movs	r2, #0
 8000352:	2107      	movs	r1, #7
 8000354:	0018      	movs	r0, r3
 8000356:	f7ff feed 	bl	8000134 <init_pin>
}
 800035a:	46c0      	nop			@ (mov r8, r8)
 800035c:	46bd      	mov	sp, r7
 800035e:	bd80      	pop	{r7, pc}
 8000360:	40021000 	.word	0x40021000

08000364 <control_rgb_led>:

void control_rgb_led(int red_on, int green_on, int blue_on) {
 8000364:	b580      	push	{r7, lr}
 8000366:	b084      	sub	sp, #16
 8000368:	af00      	add	r7, sp, #0
 800036a:	60f8      	str	r0, [r7, #12]
 800036c:	60b9      	str	r1, [r7, #8]
 800036e:	607a      	str	r2, [r7, #4]
	if (red_on) {
 8000370:	68fb      	ldr	r3, [r7, #12]
 8000372:	2b00      	cmp	r3, #0
 8000374:	d005      	beq.n	8000382 <control_rgb_led+0x1e>
		pin_high(GPIOB, RED_LED_PIN);
 8000376:	4b16      	ldr	r3, [pc, #88]	@ (80003d0 <control_rgb_led+0x6c>)
 8000378:	2104      	movs	r1, #4
 800037a:	0018      	movs	r0, r3
 800037c:	f7ff fefe 	bl	800017c <pin_high>
 8000380:	e004      	b.n	800038c <control_rgb_led+0x28>
	} else {
		pin_low(GPIOB, RED_LED_PIN);
 8000382:	4b13      	ldr	r3, [pc, #76]	@ (80003d0 <control_rgb_led+0x6c>)
 8000384:	2104      	movs	r1, #4
 8000386:	0018      	movs	r0, r3
 8000388:	f7ff ff09 	bl	800019e <pin_low>
	}

	if (green_on) {
 800038c:	68bb      	ldr	r3, [r7, #8]
 800038e:	2b00      	cmp	r3, #0
 8000390:	d005      	beq.n	800039e <control_rgb_led+0x3a>
		pin_high(GPIOB, GREEN_LED_PIN);
 8000392:	4b0f      	ldr	r3, [pc, #60]	@ (80003d0 <control_rgb_led+0x6c>)
 8000394:	2103      	movs	r1, #3
 8000396:	0018      	movs	r0, r3
 8000398:	f7ff fef0 	bl	800017c <pin_high>
 800039c:	e004      	b.n	80003a8 <control_rgb_led+0x44>
	} else {
		pin_low(GPIOB, GREEN_LED_PIN);
 800039e:	4b0c      	ldr	r3, [pc, #48]	@ (80003d0 <control_rgb_led+0x6c>)
 80003a0:	2103      	movs	r1, #3
 80003a2:	0018      	movs	r0, r3
 80003a4:	f7ff fefb 	bl	800019e <pin_low>
	}

	if (blue_on) {
 80003a8:	687b      	ldr	r3, [r7, #4]
 80003aa:	2b00      	cmp	r3, #0
 80003ac:	d006      	beq.n	80003bc <control_rgb_led+0x58>
		pin_high(GPIOA, BLUE_LED_PIN);
 80003ae:	23a0      	movs	r3, #160	@ 0xa0
 80003b0:	05db      	lsls	r3, r3, #23
 80003b2:	210a      	movs	r1, #10
 80003b4:	0018      	movs	r0, r3
 80003b6:	f7ff fee1 	bl	800017c <pin_high>
	} else {
		pin_low(GPIOA, BLUE_LED_PIN);
	}
}
 80003ba:	e005      	b.n	80003c8 <control_rgb_led+0x64>
		pin_low(GPIOA, BLUE_LED_PIN);
 80003bc:	23a0      	movs	r3, #160	@ 0xa0
 80003be:	05db      	lsls	r3, r3, #23
 80003c0:	210a      	movs	r1, #10
 80003c2:	0018      	movs	r0, r3
 80003c4:	f7ff feeb 	bl	800019e <pin_low>
}
 80003c8:	46c0      	nop			@ (mov r8, r8)
 80003ca:	46bd      	mov	sp, r7
 80003cc:	b004      	add	sp, #16
 80003ce:	bd80      	pop	{r7, pc}
 80003d0:	50000400 	.word	0x50000400

080003d4 <task_flash>:
		g_w_delay = W_DELAY_SLOW;
		g_rgb_delay = RGB_DELAY_SLOW;
	}
}

void task_flash(void) {
 80003d4:	b580      	push	{r7, lr}
 80003d6:	af00      	add	r7, sp, #0
	if (g_flash_led == 1) {			// only run task when in flash mode
 80003d8:	4b0d      	ldr	r3, [pc, #52]	@ (8000410 <task_flash+0x3c>)
 80003da:	781b      	ldrb	r3, [r3, #0]
 80003dc:	b2db      	uxtb	r3, r3
 80003de:	2b01      	cmp	r3, #1
 80003e0:	d113      	bne.n	800040a <task_flash+0x36>
		control_rgb_led(1, 1, 1);
 80003e2:	2201      	movs	r2, #1
 80003e4:	2101      	movs	r1, #1
 80003e6:	2001      	movs	r0, #1
 80003e8:	f7ff ffbc 	bl	8000364 <control_rgb_led>
		delay(g_w_delay);
 80003ec:	4b09      	ldr	r3, [pc, #36]	@ (8000414 <task_flash+0x40>)
 80003ee:	681b      	ldr	r3, [r3, #0]
 80003f0:	0018      	movs	r0, r3
 80003f2:	f7ff fe87 	bl	8000104 <delay>
		control_rgb_led(0, 0, 0);
 80003f6:	2200      	movs	r2, #0
 80003f8:	2100      	movs	r1, #0
 80003fa:	2000      	movs	r0, #0
 80003fc:	f7ff ffb2 	bl	8000364 <control_rgb_led>
		delay(g_w_delay);
 8000400:	4b04      	ldr	r3, [pc, #16]	@ (8000414 <task_flash+0x40>)
 8000402:	681b      	ldr	r3, [r3, #0]
 8000404:	0018      	movs	r0, r3
 8000406:	f7ff fe7d 	bl	8000104 <delay>
	}
}
 800040a:	46c0      	nop			@ (mov r8, r8)
 800040c:	46bd      	mov	sp, r7
 800040e:	bd80      	pop	{r7, pc}
 8000410:	20000024 	.word	0x20000024
 8000414:	20000000 	.word	0x20000000

08000418 <task_rgb>:

void task_rgb(void) {				// only run task when NOT flash mode
 8000418:	b580      	push	{r7, lr}
 800041a:	af00      	add	r7, sp, #0
	if (g_flash_led == 0) {
 800041c:	4b12      	ldr	r3, [pc, #72]	@ (8000468 <task_rgb+0x50>)
 800041e:	781b      	ldrb	r3, [r3, #0]
 8000420:	b2db      	uxtb	r3, r3
 8000422:	2b00      	cmp	r3, #0
 8000424:	d11d      	bne.n	8000462 <task_rgb+0x4a>
		control_rgb_led(1, 0, 0);
 8000426:	2200      	movs	r2, #0
 8000428:	2100      	movs	r1, #0
 800042a:	2001      	movs	r0, #1
 800042c:	f7ff ff9a 	bl	8000364 <control_rgb_led>
		delay(g_rgb_delay);
 8000430:	4b0e      	ldr	r3, [pc, #56]	@ (800046c <task_rgb+0x54>)
 8000432:	681b      	ldr	r3, [r3, #0]
 8000434:	0018      	movs	r0, r3
 8000436:	f7ff fe65 	bl	8000104 <delay>
		control_rgb_led(0, 1, 0);
 800043a:	2200      	movs	r2, #0
 800043c:	2101      	movs	r1, #1
 800043e:	2000      	movs	r0, #0
 8000440:	f7ff ff90 	bl	8000364 <control_rgb_led>
		delay(g_rgb_delay);
 8000444:	4b09      	ldr	r3, [pc, #36]	@ (800046c <task_rgb+0x54>)
 8000446:	681b      	ldr	r3, [r3, #0]
 8000448:	0018      	movs	r0, r3
 800044a:	f7ff fe5b 	bl	8000104 <delay>
		control_rgb_led(0, 0, 1);
 800044e:	2201      	movs	r2, #1
 8000450:	2100      	movs	r1, #0
 8000452:	2000      	movs	r0, #0
 8000454:	f7ff ff86 	bl	8000364 <control_rgb_led>
		delay(g_rgb_delay);
 8000458:	4b04      	ldr	r3, [pc, #16]	@ (800046c <task_rgb+0x54>)
 800045a:	681b      	ldr	r3, [r3, #0]
 800045c:	0018      	movs	r0, r3
 800045e:	f7ff fe51 	bl	8000104 <delay>
	}
}
 8000462:	46c0      	nop			@ (mov r8, r8)
 8000464:	46bd      	mov	sp, r7
 8000466:	bd80      	pop	{r7, pc}
 8000468:	20000024 	.word	0x20000024
 800046c:	20000004 	.word	0x20000004

08000470 <EXTI4_15_IRQHandler>:

void EXTI4_15_IRQHandler(void) {
 8000470:	b580      	push	{r7, lr}
 8000472:	af00      	add	r7, sp, #0
	if ((EXTI->FPR1 & EXTI_FPR1_FPIF9) != 0) {
 8000474:	4b12      	ldr	r3, [pc, #72]	@ (80004c0 <EXTI4_15_IRQHandler+0x50>)
 8000476:	691a      	ldr	r2, [r3, #16]
 8000478:	2380      	movs	r3, #128	@ 0x80
 800047a:	009b      	lsls	r3, r3, #2
 800047c:	4013      	ands	r3, r2
 800047e:	d00b      	beq.n	8000498 <EXTI4_15_IRQHandler+0x28>
		EXTI->FPR1 |= EXTI_FPR1_FPIF9;
 8000480:	4b0f      	ldr	r3, [pc, #60]	@ (80004c0 <EXTI4_15_IRQHandler+0x50>)
 8000482:	691a      	ldr	r2, [r3, #16]
 8000484:	4b0e      	ldr	r3, [pc, #56]	@ (80004c0 <EXTI4_15_IRQHandler+0x50>)
 8000486:	2180      	movs	r1, #128	@ 0x80
 8000488:	0089      	lsls	r1, r1, #2
 800048a:	430a      	orrs	r2, r1
 800048c:	611a      	str	r2, [r3, #16]
		control_rgb_led(1,0,1);
 800048e:	2201      	movs	r2, #1
 8000490:	2100      	movs	r1, #0
 8000492:	2001      	movs	r0, #1
 8000494:	f7ff ff66 	bl	8000364 <control_rgb_led>
	}

	if ((EXTI->FPR1 & EXTI_FPR1_FPIF7) != 0) {
 8000498:	4b09      	ldr	r3, [pc, #36]	@ (80004c0 <EXTI4_15_IRQHandler+0x50>)
 800049a:	691b      	ldr	r3, [r3, #16]
 800049c:	2280      	movs	r2, #128	@ 0x80
 800049e:	4013      	ands	r3, r2
 80004a0:	d00a      	beq.n	80004b8 <EXTI4_15_IRQHandler+0x48>
		EXTI->FPR1 |= EXTI_FPR1_FPIF7;
 80004a2:	4b07      	ldr	r3, [pc, #28]	@ (80004c0 <EXTI4_15_IRQHandler+0x50>)
 80004a4:	691a      	ldr	r2, [r3, #16]
 80004a6:	4b06      	ldr	r3, [pc, #24]	@ (80004c0 <EXTI4_15_IRQHandler+0x50>)
 80004a8:	2180      	movs	r1, #128	@ 0x80
 80004aa:	430a      	orrs	r2, r1
 80004ac:	611a      	str	r2, [r3, #16]
		control_rgb_led(0,1,1);
 80004ae:	2201      	movs	r2, #1
 80004b0:	2101      	movs	r1, #1
 80004b2:	2000      	movs	r0, #0
 80004b4:	f7ff ff56 	bl	8000364 <control_rgb_led>
	}
 80004b8:	46c0      	nop			@ (mov r8, r8)
 80004ba:	46bd      	mov	sp, r7
 80004bc:	bd80      	pop	{r7, pc}
 80004be:	46c0      	nop			@ (mov r8, r8)
 80004c0:	40021800 	.word	0x40021800

080004c4 <Reset_Handler>:

  .section .text.Reset_Handler
  .weak Reset_Handler
  .type Reset_Handler, %function
Reset_Handler:
  ldr   r0, =_estack
 80004c4:	480d      	ldr	r0, [pc, #52]	@ (80004fc <LoopForever+0x2>)
  mov   sp, r0          /* set stack pointer */
 80004c6:	4685      	mov	sp, r0
/* Call the clock system initialization function.*/
  bl  SystemInit
 80004c8:	e000      	b.n	80004cc <Reset_Handler+0x8>
 80004ca:	bf00      	nop

/* Copy the data segment initializers from flash to SRAM */
  ldr r0, =_sdata
 80004cc:	480c      	ldr	r0, [pc, #48]	@ (8000500 <LoopForever+0x6>)
  ldr r1, =_edata
 80004ce:	490d      	ldr	r1, [pc, #52]	@ (8000504 <LoopForever+0xa>)
  ldr r2, =_sidata
 80004d0:	4a0d      	ldr	r2, [pc, #52]	@ (8000508 <LoopForever+0xe>)
  movs r3, #0
 80004d2:	2300      	movs	r3, #0
  b LoopCopyDataInit
 80004d4:	e002      	b.n	80004dc <LoopCopyDataInit>

080004d6 <CopyDataInit>:

CopyDataInit:
  ldr r4, [r2, r3]
 80004d6:	58d4      	ldr	r4, [r2, r3]
  str r4, [r0, r3]
 80004d8:	50c4      	str	r4, [r0, r3]
  adds r3, r3, #4
 80004da:	3304      	adds	r3, #4

080004dc <LoopCopyDataInit>:

LoopCopyDataInit:
  adds r4, r0, r3
 80004dc:	18c4      	adds	r4, r0, r3
  cmp r4, r1
 80004de:	428c      	cmp	r4, r1
  bcc CopyDataInit
 80004e0:	d3f9      	bcc.n	80004d6 <CopyDataInit>

/* Zero fill the bss segment. */
  ldr r2, =_sbss
 80004e2:	4a0a      	ldr	r2, [pc, #40]	@ (800050c <LoopForever+0x12>)
  ldr r4, =_ebss
 80004e4:	4c0a      	ldr	r4, [pc, #40]	@ (8000510 <LoopForever+0x16>)
  movs r3, #0
 80004e6:	2300      	movs	r3, #0
  b LoopFillZerobss
 80004e8:	e001      	b.n	80004ee <LoopFillZerobss>

080004ea <FillZerobss>:

FillZerobss:
  str  r3, [r2]
 80004ea:	6013      	str	r3, [r2, #0]
  adds r2, r2, #4
 80004ec:	3204      	adds	r2, #4

080004ee <LoopFillZerobss>:

LoopFillZerobss:
  cmp r2, r4
 80004ee:	42a2      	cmp	r2, r4
  bcc FillZerobss
 80004f0:	d3fb      	bcc.n	80004ea <FillZerobss>


/* Call static constructors */
  bl __libc_init_array
 80004f2:	f000 f811 	bl	8000518 <__libc_init_array>
/* Call the application's entry point.*/

  bl main
 80004f6:	f7ff fee7 	bl	80002c8 <main>

080004fa <LoopForever>:

LoopForever:
  b LoopForever
 80004fa:	e7fe      	b.n	80004fa <LoopForever>
  ldr   r0, =_estack
 80004fc:	20009000 	.word	0x20009000
  ldr r0, =_sdata
 8000500:	20000000 	.word	0x20000000
  ldr r1, =_edata
 8000504:	20000008 	.word	0x20000008
  ldr r2, =_sidata
 8000508:	08000580 	.word	0x08000580
  ldr r2, =_sbss
 800050c:	20000008 	.word	0x20000008
  ldr r4, =_ebss
 8000510:	20000028 	.word	0x20000028

08000514 <ADC_COMP_IRQHandler>:
 * @retval : None
*/
  .section .text.Default_Handler,"ax",%progbits
Default_Handler:
Infinite_Loop:
  b Infinite_Loop
 8000514:	e7fe      	b.n	8000514 <ADC_COMP_IRQHandler>
	...

08000518 <__libc_init_array>:
 8000518:	b570      	push	{r4, r5, r6, lr}
 800051a:	2600      	movs	r6, #0
 800051c:	4c0c      	ldr	r4, [pc, #48]	@ (8000550 <__libc_init_array+0x38>)
 800051e:	4d0d      	ldr	r5, [pc, #52]	@ (8000554 <__libc_init_array+0x3c>)
 8000520:	1b64      	subs	r4, r4, r5
 8000522:	10a4      	asrs	r4, r4, #2
 8000524:	42a6      	cmp	r6, r4
 8000526:	d109      	bne.n	800053c <__libc_init_array+0x24>
 8000528:	2600      	movs	r6, #0
 800052a:	f000 f819 	bl	8000560 <_init>
 800052e:	4c0a      	ldr	r4, [pc, #40]	@ (8000558 <__libc_init_array+0x40>)
 8000530:	4d0a      	ldr	r5, [pc, #40]	@ (800055c <__libc_init_array+0x44>)
 8000532:	1b64      	subs	r4, r4, r5
 8000534:	10a4      	asrs	r4, r4, #2
 8000536:	42a6      	cmp	r6, r4
 8000538:	d105      	bne.n	8000546 <__libc_init_array+0x2e>
 800053a:	bd70      	pop	{r4, r5, r6, pc}
 800053c:	00b3      	lsls	r3, r6, #2
 800053e:	58eb      	ldr	r3, [r5, r3]
 8000540:	4798      	blx	r3
 8000542:	3601      	adds	r6, #1
 8000544:	e7ee      	b.n	8000524 <__libc_init_array+0xc>
 8000546:	00b3      	lsls	r3, r6, #2
 8000548:	58eb      	ldr	r3, [r5, r3]
 800054a:	4798      	blx	r3
 800054c:	3601      	adds	r6, #1
 800054e:	e7f2      	b.n	8000536 <__libc_init_array+0x1e>
 8000550:	08000578 	.word	0x08000578
 8000554:	08000578 	.word	0x08000578
 8000558:	0800057c 	.word	0x0800057c
 800055c:	08000578 	.word	0x08000578

08000560 <_init>:
 8000560:	b5f8      	push	{r3, r4, r5, r6, r7, lr}
 8000562:	46c0      	nop			@ (mov r8, r8)
 8000564:	bcf8      	pop	{r3, r4, r5, r6, r7}
 8000566:	bc08      	pop	{r3}
 8000568:	469e      	mov	lr, r3
 800056a:	4770      	bx	lr

0800056c <_fini>:
 800056c:	b5f8      	push	{r3, r4, r5, r6, r7, lr}
 800056e:	46c0      	nop			@ (mov r8, r8)
 8000570:	bcf8      	pop	{r3, r4, r5, r6, r7}
 8000572:	bc08      	pop	{r3}
 8000574:	469e      	mov	lr, r3
 8000576:	4770      	bx	lr
